target datalayout = "e-m:e-p270:32:32-p271:32:32-p272:64:64-i64:64-i128:128-f80:128-n8:16:32:64-S128"
target triple = "x86_64-pc-linux-gnu"

%class.b3OverlappingPairCache = type { ptr }
%class.b3AlignedObjectArray = type <{ [4 x i8], i32, i32, [4 x i8], ptr, i8, [7 x i8] }>
%struct.b3Int4 = type { %union.anon }
%union.anon = type { %struct.anon }
%struct.anon = type { i32, i32, i32, i32 }
%class.b3SortedOverlappingPairCache = type { %class.b3OverlappingPairCache, %class.b3AlignedObjectArray, i8, i8, ptr }

; Function Attrs: inlinehint mustprogress nounwind uwtable
define linkonce_odr dso_local noundef zeroext i1 @_ZeqRK6b3Int4S1_(ptr noundef nonnull align 16 dereferenceable(16) %0, ptr noundef nonnull align 16 dereferenceable(16) %1) #1 comdat {
  %3 = alloca ptr, align 8
  %4 = alloca ptr, align 8
  store ptr %0, ptr %3, align 8, !tbaa !30
  store ptr %1, ptr %4, align 8, !tbaa !30
  %5 = load ptr, ptr %3, align 8, !tbaa !30
  %6 = getelementptr inbounds nuw %struct.b3Int4, ptr %5, i32 0, i32 0
  %7 = getelementptr inbounds nuw %struct.anon, ptr %6, i32 0, i32 0
  %8 = load i32, ptr %7, align 16, !tbaa !38
  %9 = load ptr, ptr %4, align 8, !tbaa !30
  %10 = getelementptr inbounds nuw %struct.b3Int4, ptr %9, i32 0, i32 0
  %11 = getelementptr inbounds nuw %struct.anon, ptr %10, i32 0, i32 0
  %12 = load i32, ptr %11, align 16, !tbaa !38
  %13 = icmp eq i32 %8, %12
  br i1 %13, label %14, label %24

14:                                               ; preds = %2
  %15 = load ptr, ptr %3, align 8, !tbaa !30
  %16 = getelementptr inbounds nuw %struct.b3Int4, ptr %15, i32 0, i32 0
  %17 = getelementptr inbounds nuw %struct.anon, ptr %16, i32 0, i32 1
  %18 = load i32, ptr %17, align 4, !tbaa !38
  %19 = load ptr, ptr %4, align 8, !tbaa !30
  %20 = getelementptr inbounds nuw %struct.b3Int4, ptr %19, i32 0, i32 0
  %21 = getelementptr inbounds nuw %struct.anon, ptr %20, i32 0, i32 1
  %22 = load i32, ptr %21, align 4, !tbaa !38
  %23 = icmp eq i32 %18, %22
  br label %24

24:                                               ; preds = %14, %2
  %25 = phi i1 [ false, %2 ], [ %23, %14 ]
  ret i1 %25
}

; Function Attrs: inlinehint mustprogress nounwind uwtable
define linkonce_odr dso_local noundef nonnull align 16 dereferenceable(16) ptr @_ZN20b3AlignedObjectArrayI6b3Int4EixEi(ptr noundef nonnull align 8 dereferenceable(25) %0, i32 noundef %1) #1 comdat align 2 {
  %3 = alloca ptr, align 8
  %4 = alloca i32, align 4
  store ptr %0, ptr %3, align 8, !tbaa !26
  store i32 %1, ptr %4, align 4, !tbaa !23
  %5 = load ptr, ptr %3, align 8
  %6 = getelementptr inbounds nuw %class.b3AlignedObjectArray, ptr %5, i32 0, i32 4
  %7 = load ptr, ptr %6, align 8, !tbaa !33
  %8 = load i32, ptr %4, align 4, !tbaa !23
  %9 = sext i32 %8 to i64
  %10 = getelementptr inbounds %struct.b3Int4, ptr %7, i64 %9
  ret ptr %10
}

; Function Attrs: inlinehint mustprogress nounwind uwtable
define linkonce_odr dso_local noundef i32 @_ZNK20b3AlignedObjectArrayI6b3Int4E4sizeEv(ptr noundef nonnull align 8 dereferenceable(25) %0) #1 comdat align 2 {
  %2 = alloca ptr, align 8
  store ptr %0, ptr %2, align 8, !tbaa !26
  %3 = load ptr, ptr %2, align 8
  %4 = getelementptr inbounds nuw %class.b3AlignedObjectArray, ptr %3, i32 0, i32 1
  %5 = load i32, ptr %4, align 4, !tbaa !31
  ret i32 %5
}

; Function Attrs: mustprogress uwtable
define linkonce_odr dso_local noundef i32 @_ZNK20b3AlignedObjectArrayI6b3Int4E16findLinearSearchERKS0_(ptr noundef nonnull align 8 dereferenceable(25) %0, ptr noundef nonnull align 16 dereferenceable(16) %1) #0 comdat align 2 {
  %3 = alloca ptr, align 8
  %4 = alloca ptr, align 8
  %5 = alloca i32, align 4
  %6 = alloca i32, align 4
  store ptr %0, ptr %3, align 8, !tbaa !26
  store ptr %1, ptr %4, align 8, !tbaa !30
  %7 = load ptr, ptr %3, align 8
  call void @llvm.lifetime.start.p0(i64 4, ptr %5) #10
  %8 = call noundef i32 @_ZNK20b3AlignedObjectArrayI6b3Int4E4sizeEv(ptr noundef nonnull align 8 dereferenceable(25) %7)
  store i32 %8, ptr %5, align 4, !tbaa !23
  call void @llvm.lifetime.start.p0(i64 4, ptr %6) #10
  store i32 0, ptr %6, align 4, !tbaa !23
  br label %9

9:                                                ; preds = %24, %2
  %10 = load i32, ptr %6, align 4, !tbaa !23
  %11 = call noundef i32 @_ZNK20b3AlignedObjectArrayI6b3Int4E4sizeEv(ptr noundef nonnull align 8 dereferenceable(25) %7)
  %12 = icmp slt i32 %10, %11
  br i1 %12, label %13, label %27

13:                                               ; preds = %9
  %14 = getelementptr inbounds nuw %class.b3AlignedObjectArray, ptr %7, i32 0, i32 4
  %15 = load ptr, ptr %14, align 8, !tbaa !33
  %16 = load i32, ptr %6, align 4, !tbaa !23
  %17 = sext i32 %16 to i64
  %18 = getelementptr inbounds %struct.b3Int4, ptr %15, i64 %17
  %19 = load ptr, ptr %4, align 8, !tbaa !30
  %20 = call noundef zeroext i1 @_ZeqRK6b3Int4S1_(ptr noundef nonnull align 16 dereferenceable(16) %18, ptr noundef nonnull align 16 dereferenceable(16) %19)
  br i1 %20, label %21, label %23

21:                                               ; preds = %13
  %22 = load i32, ptr %6, align 4, !tbaa !23
  store i32 %22, ptr %5, align 4, !tbaa !23
  br label %27

23:                                               ; preds = %13
  br label %24

24:                                               ; preds = %23
  %25 = load i32, ptr %6, align 4, !tbaa !23
  %26 = add nsw i32 %25, 1
  store i32 %26, ptr %6, align 4, !tbaa !23
  br label %9, !llvm.loop !74

27:                                               ; preds = %21, %9
  %28 = load i32, ptr %5, align 4, !tbaa !23
  call void @llvm.lifetime.end.p0(i64 4, ptr %6) #10
  call void @llvm.lifetime.end.p0(i64 4, ptr %5) #10
  ret i32 %28
}

; Function Attrs: inlinehint mustprogress nounwind uwtable
define linkonce_odr dso_local { i64, i64 } @_Z20b3MakeBroadphasePairii(i32 noundef %0, i32 noundef %1) #1 comdat {
  %3 = alloca %struct.b3Int4, align 16
  %4 = alloca i32, align 4
  %5 = alloca i32, align 4
  store i32 %0, ptr %4, align 4, !tbaa !23
  store i32 %1, ptr %5, align 4, !tbaa !23
  %6 = load i32, ptr %4, align 4, !tbaa !23
  %7 = load i32, ptr %5, align 4, !tbaa !23
  %8 = icmp slt i32 %6, %7
  br i1 %8, label %9, label %16

9:                                                ; preds = %2
  %10 = load i32, ptr %4, align 4, !tbaa !23
  %11 = getelementptr inbounds nuw %struct.b3Int4, ptr %3, i32 0, i32 0
  %12 = getelementptr inbounds nuw %struct.anon, ptr %11, i32 0, i32 0
  store i32 %10, ptr %12, align 16, !tbaa !38
  %13 = load i32, ptr %5, align 4, !tbaa !23
  %14 = getelementptr inbounds nuw %struct.b3Int4, ptr %3, i32 0, i32 0
  %15 = getelementptr inbounds nuw %struct.anon, ptr %14, i32 0, i32 1
  store i32 %13, ptr %15, align 4, !tbaa !38
  br label %23

16:                                               ; preds = %2
  %17 = load i32, ptr %5, align 4, !tbaa !23
  %18 = getelementptr inbounds nuw %struct.b3Int4, ptr %3, i32 0, i32 0
  %19 = getelementptr inbounds nuw %struct.anon, ptr %18, i32 0, i32 0
  store i32 %17, ptr %19, align 16, !tbaa !38
  %20 = load i32, ptr %4, align 4, !tbaa !23
  %21 = getelementptr inbounds nuw %struct.b3Int4, ptr %3, i32 0, i32 0
  %22 = getelementptr inbounds nuw %struct.anon, ptr %21, i32 0, i32 1
  store i32 %20, ptr %22, align 4, !tbaa !38
  br label %23

23:                                               ; preds = %16, %9
  %24 = getelementptr inbounds nuw %struct.b3Int4, ptr %3, i32 0, i32 0
  %25 = getelementptr inbounds nuw %struct.anon, ptr %24, i32 0, i32 2
  store i32 -1, ptr %25, align 8, !tbaa !38
  %26 = getelementptr inbounds nuw %struct.b3Int4, ptr %3, i32 0, i32 0
  %27 = getelementptr inbounds nuw %struct.anon, ptr %26, i32 0, i32 3
  store i32 -1, ptr %27, align 4, !tbaa !38
  %28 = getelementptr inbounds nuw %struct.b3Int4, ptr %3, i32 0, i32 0
  %29 = getelementptr inbounds nuw %union.anon, ptr %28, i32 0, i32 0
  %30 = load { i64, i64 }, ptr %29, align 16
  ret { i64, i64 } %30
}

; Function Attrs: inlinehint mustprogress uwtable
define linkonce_odr dso_local noundef zeroext i1 @_ZNK28b3SortedOverlappingPairCache24needsBroadphaseCollisionEii(ptr noundef nonnull align 8 dereferenceable(56) %0, i32 noundef %1, i32 noundef %2) #3 comdat align 2 {
  %4 = alloca i1, align 1
  %5 = alloca ptr, align 8
  %6 = alloca i32, align 4
  %7 = alloca i32, align 4
  %8 = alloca i8, align 1
  store ptr %0, ptr %5, align 8, !tbaa !72
  store i32 %1, ptr %6, align 4, !tbaa !23
  store i32 %2, ptr %7, align 4, !tbaa !23
  %9 = load ptr, ptr %5, align 8
  %10 = getelementptr inbounds nuw %class.b3SortedOverlappingPairCache, ptr %9, i32 0, i32 4
  %11 = load ptr, ptr %10, align 8, !tbaa !75
  %12 = icmp ne ptr %11, null
  br i1 %12, label %13, label %22

13:                                               ; preds = %3
  %14 = getelementptr inbounds nuw %class.b3SortedOverlappingPairCache, ptr %9, i32 0, i32 4
  %15 = load ptr, ptr %14, align 8, !tbaa !75
  %16 = load i32, ptr %6, align 4, !tbaa !23
  %17 = load i32, ptr %7, align 4, !tbaa !23
  %18 = load ptr, ptr %15, align 8, !tbaa !9
  %19 = getelementptr inbounds ptr, ptr %18, i64 2
  %20 = load ptr, ptr %19, align 8
  %21 = call noundef zeroext i1 %20(ptr noundef nonnull align 8 dereferenceable(8) %15, i32 noundef %16, i32 noundef %17)
  store i1 %21, ptr %4, align 1
  br label %25

22:                                               ; preds = %3
  call void @llvm.lifetime.start.p0(i64 1, ptr %8) #10
  store i8 1, ptr %8, align 1, !tbaa !77
  %23 = load i8, ptr %8, align 1, !tbaa !77, !range !78, !noundef !79
  %24 = trunc i8 %23 to i1
  store i1 %24, ptr %4, align 1
  call void @llvm.lifetime.end.p0(i64 1, ptr %8) #10
  br label %25

25:                                               ; preds = %22, %13
  %26 = load i1, ptr %4, align 1
  ret i1 %26
}

; Function Attrs: mustprogress uwtable
define dso_local noundef ptr @_ZN28b3SortedOverlappingPairCache8findPairEii(ptr noundef nonnull align 8 dereferenceable(56) %0, i32 noundef %1, i32 noundef %2) unnamed_addr #0 align 2 {
  %4 = alloca ptr, align 8
  %5 = alloca ptr, align 8
  %6 = alloca i32, align 4
  %7 = alloca i32, align 4
  %8 = alloca %struct.b3Int4, align 16
  %9 = alloca i32, align 4
  %10 = alloca ptr, align 8
  %11 = alloca i32, align 4
  store ptr %0, ptr %5, align 8, !tbaa !72
  store i32 %1, ptr %6, align 4, !tbaa !23
  store i32 %2, ptr %7, align 4, !tbaa !23
  %12 = load ptr, ptr %5, align 8
  %13 = load i32, ptr %6, align 4, !tbaa !23
  %14 = load i32, ptr %7, align 4, !tbaa !23
  %15 = call noundef zeroext i1 @_ZNK28b3SortedOverlappingPairCache24needsBroadphaseCollisionEii(ptr noundef nonnull align 8 dereferenceable(56) %12, i32 noundef %13, i32 noundef %14)
  br i1 %15, label %17, label %16

16:                                               ; preds = %3
  store ptr null, ptr %4, align 8
  br label %40

17:                                               ; preds = %3
  call void @llvm.lifetime.start.p0(i64 16, ptr %8) #10
  %18 = load i32, ptr %6, align 4, !tbaa !23
  %19 = load i32, ptr %7, align 4, !tbaa !23
  %20 = call { i64, i64 } @_Z20b3MakeBroadphasePairii(i32 noundef %18, i32 noundef %19)
  %21 = getelementptr inbounds nuw %struct.b3Int4, ptr %8, i32 0, i32 0
  %22 = getelementptr inbounds nuw %union.anon, ptr %21, i32 0, i32 0
  %23 = getelementptr inbounds nuw { i64, i64 }, ptr %22, i32 0, i32 0
  %24 = extractvalue { i64, i64 } %20, 0
  store i64 %24, ptr %23, align 16
  %25 = getelementptr inbounds nuw { i64, i64 }, ptr %22, i32 0, i32 1
  %26 = extractvalue { i64, i64 } %20, 1
  store i64 %26, ptr %25, align 8
  call void @llvm.lifetime.start.p0(i64 4, ptr %9) #10
  %27 = getelementptr inbounds nuw %class.b3SortedOverlappingPairCache, ptr %12, i32 0, i32 1
  %28 = call noundef i32 @_ZNK20b3AlignedObjectArrayI6b3Int4E16findLinearSearchERKS0_(ptr noundef nonnull align 8 dereferenceable(25) %27, ptr noundef nonnull align 16 dereferenceable(16) %8)
  store i32 %28, ptr %9, align 4, !tbaa !23
  %29 = load i32, ptr %9, align 4, !tbaa !23
  %30 = getelementptr inbounds nuw %class.b3SortedOverlappingPairCache, ptr %12, i32 0, i32 1
  %31 = call noundef i32 @_ZNK20b3AlignedObjectArrayI6b3Int4E4sizeEv(ptr noundef nonnull align 8 dereferenceable(25) %30)
  %32 = icmp slt i32 %29, %31
  br i1 %32, label %33, label %38

33:                                               ; preds = %17
  call void @llvm.lifetime.start.p0(i64 8, ptr %10) #10
  %34 = getelementptr inbounds nuw %class.b3SortedOverlappingPairCache, ptr %12, i32 0, i32 1
  %35 = load i32, ptr %9, align 4, !tbaa !23
  %36 = call noundef nonnull align 16 dereferenceable(16) ptr @_ZN20b3AlignedObjectArrayI6b3Int4EixEi(ptr noundef nonnull align 8 dereferenceable(25) %34, i32 noundef %35)
  store ptr %36, ptr %10, align 8, !tbaa !30
  %37 = load ptr, ptr %10, align 8, !tbaa !30
  store ptr %37, ptr %4, align 8
  store i32 1, ptr %11, align 4
  call void @llvm.lifetime.end.p0(i64 8, ptr %10) #10
  br label %39

38:                                               ; preds = %17
  store ptr null, ptr %4, align 8
  store i32 1, ptr %11, align 4
  br label %39

39:                                               ; preds = %38, %33
  call void @llvm.lifetime.end.p0(i64 4, ptr %9) #10
  call void @llvm.lifetime.end.p0(i64 16, ptr %8) #10
  br label %40

40:                                               ; preds = %39, %16
  %41 = load ptr, ptr %4, align 8
  ret ptr %41
}