; Function Attrs: mustprogress uwtable
define dso_local noundef ptr @_ZN28b3SortedOverlappingPairCache8findPairEii(ptr noundef nonnull readonly align 8 captures(none) dereferenceable(56) %0, i32 noundef %1, i32 noundef %2) unnamed_addr #0 align 2 {
  %4 = getelementptr inbounds nuw i8, ptr %0, i64 48
  %5 = load ptr, ptr %4, align 8, !tbaa !57
  %.not.i = icmp eq ptr %5, null
  br i1 %.not.i, label %_ZNK28b3SortedOverlappingPairCache24needsBroadphaseCollisionEii.exit.thread, label %_ZNK28b3SortedOverlappingPairCache24needsBroadphaseCollisionEii.exit

_ZNK28b3SortedOverlappingPairCache24needsBroadphaseCollisionEii.exit: ; preds = %3
  %6 = load ptr, ptr %5, align 8, !tbaa !4
  %7 = getelementptr inbounds nuw i8, ptr %6, i64 16
  %8 = load ptr, ptr %7, align 8
  %9 = tail call noundef zeroext i1 %8(ptr noundef nonnull align 8 dereferenceable(8) %5, i32 noundef %1, i32 noundef %2)
  br i1 %9, label %_ZNK28b3SortedOverlappingPairCache24needsBroadphaseCollisionEii.exit.thread, label %_ZNK20b3AlignedObjectArrayI6b3Int4E16findLinearSearchERKS0_.exit.thread

_ZNK28b3SortedOverlappingPairCache24needsBroadphaseCollisionEii.exit.thread: ; preds = %3, %_ZNK28b3SortedOverlappingPairCache24needsBroadphaseCollisionEii.exit
  %.8.i = tail call i32 @llvm.smax.i32(i32 %1, i32 %2)
  %10 = getelementptr inbounds nuw i8, ptr %0, i64 12
  %11 = load i32, ptr %10, align 4, !tbaa !16
  %12 = icmp sgt i32 %11, 0
  br i1 %12, label %.lr.ph.i, label %_ZNK20b3AlignedObjectArrayI6b3Int4E16findLinearSearchERKS0_.exit.thread

.lr.ph.i:                                         ; preds = %_ZNK28b3SortedOverlappingPairCache24needsBroadphaseCollisionEii.exit.thread
  %..i = tail call i32 @llvm.smin.i32(i32 %1, i32 %2)
  %13 = getelementptr inbounds nuw i8, ptr %0, i64 24
  %14 = load ptr, ptr %13, align 8, !tbaa !15
  %wide.trip.count.i = zext nneg i32 %11 to i64
  br label %15

15:                                               ; preds = %23, %.lr.ph.i
  %indvars.iv.i = phi i64 [ 0, %.lr.ph.i ], [ %indvars.iv.next.i, %23 ]
  %16 = getelementptr inbounds nuw %struct.b3Int4, ptr %14, i64 %indvars.iv.i
  %17 = load i32, ptr %16, align 16, !tbaa !30
  %18 = icmp eq i32 %17, %..i
  %19 = getelementptr inbounds nuw i8, ptr %16, i64 4
  %20 = load i32, ptr %19, align 4
  %21 = icmp eq i32 %20, %.8.i
  %22 = select i1 %18, i1 %21, i1 false
  br i1 %22, label %_ZNK20b3AlignedObjectArrayI6b3Int4E16findLinearSearchERKS0_.exit, label %23

23:                                               ; preds = %15
  %indvars.iv.next.i = add nuw nsw i64 %indvars.iv.i, 1
  %exitcond.not.i = icmp eq i64 %indvars.iv.next.i, %wide.trip.count.i
  br i1 %exitcond.not.i, label %_ZNK20b3AlignedObjectArrayI6b3Int4E16findLinearSearchERKS0_.exit.thread, label %15, !llvm.loop !56

_ZNK20b3AlignedObjectArrayI6b3Int4E16findLinearSearchERKS0_.exit: ; preds = %15
  %24 = trunc nuw nsw i64 %indvars.iv.i to i32
  %25 = icmp sgt i32 %11, %24
  br i1 %25, label %26, label %_ZNK20b3AlignedObjectArrayI6b3Int4E16findLinearSearchERKS0_.exit.thread

26:                                               ; preds = %_ZNK20b3AlignedObjectArrayI6b3Int4E16findLinearSearchERKS0_.exit
  %sext = shl i64 %indvars.iv.i, 32
  %27 = ashr exact i64 %sext, 28
  %28 = getelementptr inbounds i8, ptr %14, i64 %27
  br label %_ZNK20b3AlignedObjectArrayI6b3Int4E16findLinearSearchERKS0_.exit.thread

_ZNK20b3AlignedObjectArrayI6b3Int4E16findLinearSearchERKS0_.exit.thread: ; preds = %23, %_ZNK28b3SortedOverlappingPairCache24needsBroadphaseCollisionEii.exit.thread, %26, %_ZNK20b3AlignedObjectArrayI6b3Int4E16findLinearSearchERKS0_.exit, %_ZNK28b3SortedOverlappingPairCache24needsBroadphaseCollisionEii.exit
  %.0 = phi ptr [ null, %_ZNK28b3SortedOverlappingPairCache24needsBroadphaseCollisionEii.exit ], [ %28, %26 ], [ null, %_ZNK20b3AlignedObjectArrayI6b3Int4E16findLinearSearchERKS0_.exit ], [ null, %_ZNK28b3SortedOverlappingPairCache24needsBroadphaseCollisionEii.exit.thread ], [ null, %23 ]
  ret ptr %.0
}